Certificate:
    Data:
        Version: 3 (0x2)
        Serial Number: 4096 (0x1000)
    Signature Algorithm: sha256WithRSAEncryption
        Issuer: C=LK, ST=Western, L=Colombo, O=University of Colombo, OU=School of Computing, CN=Hasiru/emailAddress=bgh.kavishan@gmail.com
        Validity
            Not Before: Apr 10 04:54:53 2017 GMT
            Not After : Apr 10 04:54:53 2018 GMT
        Subject: C=LK, ST=Western, O=University of Colombo, OU=School of Computing, CN=Hasiru/emailAddress=bgh.kavishan@gmail.com
        Subject Public Key Info:
            Public Key Algorithm: rsaEncryption
                Public-Key: (1024 bit)
                Modulus:
                    00:a4:47:2d:ef:ec:0e:d5:3d:f9:0f:46:a8:2b:88:
                    f4:53:26:e9:11:b5:ae:7f:09:3b:ec:24:6a:9c:79:
                    d0:88:e9:ce:7b:61:71:80:01:87:cc:b4:0c:f4:dc:
                    cb:6c:0a:3d:3f:89:6e:a1:21:16:a2:4b:a2:f5:79:
                    76:c8:18:d7:43:0b:6e:61:e7:72:a9:ff:1d:de:c1:
                    e6:24:57:5c:a0:6a:ff:2c:cc:9b:e4:de:6e:ee:64:
                    3a:b6:fa:dd:74:da:3d:14:a6:2c:0a:c5:27:49:31:
                    b3:61:ab:86:43:26:8e:f2:f7:62:9c:72:d2:93:a8:
                    ed:cb:ee:b5:33:67:94:ba:01
                Exponent: 65537 (0x10001)
        X509v3 extensions:
            X509v3 Basic Constraints: 
                CA:FALSE
            Netscape Comment: 
                OpenSSL Generated Certificate
            X509v3 Subject Key Identifier: 
                E6:DC:DD:42:7B:10:7B:E5:5B:00:95:8E:06:C8:3F:04:22:44:1F:30
            X509v3 Authority Key Identifier: 
                keyid:8C:F6:BC:4A:BD:8B:A2:B7:A1:BC:22:C7:CA:0A:9C:40:47:A1:FE:6F

    Signature Algorithm: sha256WithRSAEncryption
         99:25:73:6b:a4:55:70:60:cf:ed:32:6d:c6:73:7c:e7:7a:3b:
         01:84:c8:53:67:36:37:28:7f:8a:46:70:80:f5:13:95:ad:ff:
         1b:d6:94:c6:63:dd:fe:eb:e3:c8:db:ef:c9:c1:0e:97:3c:03:
         57:da:9f:dd:d6:30:96:31:ab:9b:cf:27:86:04:77:0c:d9:fe:
         3b:9a:1f:07:cd:bf:47:86:96:eb:fc:04:f9:e8:33:29:af:4e:
         b4:30:21:b1:19:54:b9:6c:39:9c:1c:41:0c:2a:5b:f9:75:13:
         c1:22:df:19:2e:f1:b5:ed:55:a5:45:af:37:3c:b9:be:09:98:
         99:b6
-----BEGIN CERTIFICATE-----
MIIDMDCCApmgAwIBAgICEAAwDQYJKoZIhvcNAQELBQAwgacxCzAJBgNVBAYTAkxL
MRAwDgYDVQQIDAdXZXN0ZXJuMRAwDgYDVQQHDAdDb2xvbWJvMR4wHAYDVQQKDBVV
bml2ZXJzaXR5IG9mIENvbG9tYm8xHDAaBgNVBAsME1NjaG9vbCBvZiBDb21wdXRp
bmcxDzANBgNVBAMMBkhhc2lydTElMCMGCSqGSIb3DQEJARYWYmdoLmthdmlzaGFu
QGdtYWlsLmNvbTAeFw0xNzA0MTAwNDU0NTNaFw0xODA0MTAwNDU0NTNaMIGVMQsw
CQYDVQQGEwJMSzEQMA4GA1UECAwHV2VzdGVybjEeMBwGA1UECgwVVW5pdmVyc2l0
eSBvZiBDb2xvbWJvMRwwGgYDVQQLDBNTY2hvb2wgb2YgQ29tcHV0aW5nMQ8wDQYD
VQQDDAZIYXNpcnUxJTAjBgkqhkiG9w0BCQEWFmJnaC5rYXZpc2hhbkBnbWFpbC5j
b20wgZ8wDQYJKoZIhvcNAQEBBQADgY0AMIGJAoGBAKRHLe/sDtU9+Q9GqCuI9FMm
6RG1rn8JO+wkapx50IjpznthcYABh8y0DPTcy2wKPT+JbqEhFqJLovV5dsgY10ML
bmHncqn/Hd7B5iRXXKBq/yzMm+Tebu5kOrb63XTaPRSmLArFJ0kxs2GrhkMmjvL3
Ypxy0pOo7cvutTNnlLoBAgMBAAGjezB5MAkGA1UdEwQCMAAwLAYJYIZIAYb4QgEN
BB8WHU9wZW5TU0wgR2VuZXJhdGVkIENlcnRpZmljYXRlMB0GA1UdDgQWBBTm3N1C
exB75VsAlY4GyD8EIkQfMDAfBgNVHSMEGDAWgBSM9rxKvYuit6G8IsfKCpxAR6H+
bzANBgkqhkiG9w0BAQsFAAOBgQCZJXNrpFVwYM/tMm3Gc3znejsBhMhTZzY3KH+K
RnCA9ROVrf8b1pTGY93+6+PI2+/JwQ6XPANX2p/d1jCWMaubzyeGBHcM2f47mh8H
zb9Hhpbr/AT56DMpr060MCGxGVS5bDmcHEEMKlv5dRPBIt8ZLvG17VWlRa83PLm+
CZiZtg==
-----END CERTIFICATE-----
