Certificate:
    Data:
        Version: 3 (0x2)
        Serial Number: 4097 (0x1001)
    Signature Algorithm: sha256WithRSAEncryption
        Issuer: C=LK, ST=Western, L=Colombo, O=University of Colombo, OU=School of Computing, CN=Hasiru/emailAddress=bgh.kavishan@gmail.com
        Validity
            Not Before: Apr 10 05:00:46 2017 GMT
            Not After : Apr 10 05:00:46 2018 GMT
        Subject: C=LK, ST=Western, O=University of Colombo, OU=School of Computing, CN=HasiruKavishan/emailAddress=bgh.kavishan@gmail.com
        Subject Public Key Info:
            Public Key Algorithm: rsaEncryption
                Public-Key: (1024 bit)
                Modulus:
                    00:e0:2a:6e:2f:f8:5a:00:61:21:95:0f:07:77:eb:
                    a3:c3:59:f8:54:26:5e:3d:ed:4f:23:a4:1a:9b:e9:
                    ae:94:3c:3e:0f:51:34:9c:ff:63:1a:f2:c0:64:9f:
                    e2:1d:9b:da:3f:97:11:45:a3:14:11:4a:82:c9:bf:
                    9c:c1:f3:23:c9:81:9d:b2:15:01:6c:d6:c4:4a:92:
                    92:c5:93:52:9e:60:a3:07:5f:e8:c1:5a:57:76:1d:
                    e2:ff:1b:7d:2b:a3:5e:4a:9e:9f:50:04:c6:54:84:
                    aa:cc:76:8e:fb:a1:67:3b:83:d9:28:11:96:89:15:
                    be:23:8a:1a:ad:d5:04:10:39
                Exponent: 65537 (0x10001)
        X509v3 extensions:
            X509v3 Basic Constraints: 
                CA:FALSE
            Netscape Comment: 
                OpenSSL Generated Certificate
            X509v3 Subject Key Identifier: 
                44:D9:85:91:D4:6C:C9:82:A2:67:84:29:CE:87:F1:70:5E:BF:94:60
            X509v3 Authority Key Identifier: 
                keyid:8C:F6:BC:4A:BD:8B:A2:B7:A1:BC:22:C7:CA:0A:9C:40:47:A1:FE:6F

    Signature Algorithm: sha256WithRSAEncryption
         95:8c:1c:88:7f:bd:06:95:db:a7:c2:ce:f5:37:5e:2b:2b:e9:
         26:67:7f:f8:11:cd:84:4d:30:fb:54:06:12:e4:cd:89:07:8e:
         8a:d0:24:fb:9d:fc:65:f0:02:84:30:9d:95:03:b8:33:45:a3:
         ec:6f:9e:59:91:54:c2:17:d2:6f:a6:16:22:6e:4d:97:37:07:
         97:76:1c:30:5f:05:cc:08:f0:08:ab:1a:b7:20:ab:fa:47:9f:
         85:cf:1a:04:4c:a9:96:80:a0:75:d5:95:96:c7:6f:4a:a8:c7:
         c4:4e:41:9f:92:be:c4:ad:97:60:c8:bf:12:82:9e:e1:58:bf:
         4a:8f
-----BEGIN CERTIFICATE-----
MIIDODCCAqGgAwIBAgICEAEwDQYJKoZIhvcNAQELBQAwgacxCzAJBgNVBAYTAkxL
MRAwDgYDVQQIDAdXZXN0ZXJuMRAwDgYDVQQHDAdDb2xvbWJvMR4wHAYDVQQKDBVV
bml2ZXJzaXR5IG9mIENvbG9tYm8xHDAaBgNVBAsME1NjaG9vbCBvZiBDb21wdXRp
bmcxDzANBgNVBAMMBkhhc2lydTElMCMGCSqGSIb3DQEJARYWYmdoLmthdmlzaGFu
QGdtYWlsLmNvbTAeFw0xNzA0MTAwNTAwNDZaFw0xODA0MTAwNTAwNDZaMIGdMQsw
CQYDVQQGEwJMSzEQMA4GA1UECAwHV2VzdGVybjEeMBwGA1UECgwVVW5pdmVyc2l0
eSBvZiBDb2xvbWJvMRwwGgYDVQQLDBNTY2hvb2wgb2YgQ29tcHV0aW5nMRcwFQYD
VQQDDA5IYXNpcnVLYXZpc2hhbjElMCMGCSqGSIb3DQEJARYWYmdoLmthdmlzaGFu
QGdtYWlsLmNvbTCBnzANBgkqhkiG9w0BAQEFAAOBjQAwgYkCgYEA4CpuL/haAGEh
lQ8Hd+ujw1n4VCZePe1PI6Qam+mulDw+D1E0nP9jGvLAZJ/iHZvaP5cRRaMUEUqC
yb+cwfMjyYGdshUBbNbESpKSxZNSnmCjB1/owVpXdh3i/xt9K6NeSp6fUATGVISq
zHaO+6FnO4PZKBGWiRW+I4oardUEEDkCAwEAAaN7MHkwCQYDVR0TBAIwADAsBglg
hkgBhvhCAQ0EHxYdT3BlblNTTCBHZW5lcmF0ZWQgQ2VydGlmaWNhdGUwHQYDVR0O
BBYEFETZhZHUbMmComeEKc6H8XBev5RgMB8GA1UdIwQYMBaAFIz2vEq9i6K3obwi
x8oKnEBHof5vMA0GCSqGSIb3DQEBCwUAA4GBAJWMHIh/vQaV26fCzvU3Xisr6SZn
f/gRzYRNMPtUBhLkzYkHjorQJPud/GXwAoQwnZUDuDNFo+xvnlmRVMIX0m+mFiJu
TZc3B5d2HDBfBcwI8AirGrcgq/pHn4XPGgRMqZaAoHXVlZbHb0qox8ROQZ+SvsSt
l2DIvxKCnuFYv0qP
-----END CERTIFICATE-----
